target datalayout = "e-m:e-p270:32:32-p271:32:32-p272:64:64-i64:64-i128:128-f80:128-n8:16:32:64-S128"
target triple = "x86_64-pc-linux-gnu"

%"class.llvm::LLVMContext" = type { ptr }
%"class.llvm::ArrayRef.98" = type { ptr, i64 }

@_ZZL16getGlobalContextvE13GlobalContext = internal global %"class.llvm::LLVMContext" zeroinitializer, align 8
@_ZGVZL16getGlobalContextvE13GlobalContext = internal global i64 0, align 8
@__dso_handle = external hidden global i8

; Function Attrs: mustprogress nounwind uwtable
define linkonce_odr hidden noundef ptr @_ZN4llvm4wrapEPKNS_4TypeE(ptr noundef %0) #0 comdat {
  %2 = alloca ptr, align 8
  store ptr %0, ptr %2, align 8
  %3 = load ptr, ptr %2, align 8
  ret ptr %3
}

; Function Attrs: mustprogress nounwind uwtable
define linkonce_odr hidden noundef ptr @_ZN4llvm6unwrapEP17LLVMOpaqueContext(ptr noundef %0) #0 comdat {
  %2 = alloca ptr, align 8
  store ptr %0, ptr %2, align 8
  %3 = load ptr, ptr %2, align 8
  ret ptr %3
}

; Function Attrs: mustprogress nounwind uwtable
define linkonce_odr hidden void @_ZN4llvm8ArrayRefIPNS_4TypeEEC2EPKS2_m(ptr noundef nonnull align 8 dereferenceable(16) %0, ptr noundef %1, i64 noundef %2) unnamed_addr #0 comdat align 2 {
  %4 = alloca ptr, align 8
  %5 = alloca ptr, align 8
  %6 = alloca i64, align 8
  store ptr %0, ptr %4, align 8
  store ptr %1, ptr %5, align 8
  store i64 %2, ptr %6, align 8
  %7 = load ptr, ptr %4, align 8
  %8 = getelementptr inbounds nuw %"class.llvm::ArrayRef.98", ptr %7, i32 0, i32 0
  %9 = load ptr, ptr %5, align 8
  store ptr %9, ptr %8, align 8
  %10 = getelementptr inbounds nuw %"class.llvm::ArrayRef.98", ptr %7, i32 0, i32 1
  %11 = load i64, ptr %6, align 8
  store i64 %11, ptr %10, align 8
  ret void
}

; Function Attrs: mustprogress nounwind uwtable
define linkonce_odr hidden noundef ptr @_ZN4llvm6unwrapEPP14LLVMOpaqueType(ptr noundef %0) #0 comdat {
  %2 = alloca ptr, align 8
  store ptr %0, ptr %2, align 8
  %3 = load ptr, ptr %2, align 8
  ret ptr %3
}

; Function Attrs: mustprogress nounwind uwtable
define linkonce_odr hidden noundef ptr @_ZN4llvm4wrapEPKNS_11LLVMContextE(ptr noundef %0) #0 comdat {
  %2 = alloca ptr, align 8
  store ptr %0, ptr %2, align 8
  %3 = load ptr, ptr %2, align 8
  ret ptr %3
}

; Function Attrs: mustprogress nounwind uwtable
define internal noundef nonnull align 8 dereferenceable(8) ptr @_ZL16getGlobalContextv() #0 {
  %1 = load atomic i8, ptr @_ZGVZL16getGlobalContextvE13GlobalContext acquire, align 8
  %2 = icmp eq i8 %1, 0
  br i1 %2, label %3, label %8, !prof !4

3:                                                ; preds = %0
  %4 = call i32 @__cxa_guard_acquire(ptr @_ZGVZL16getGlobalContextvE13GlobalContext) #10
  %5 = icmp ne i32 %4, 0
  br i1 %5, label %6, label %8

6:                                                ; preds = %3
  call void @_ZN4llvm11LLVMContextC1Ev(ptr noundef nonnull align 8 dereferenceable(8) @_ZZL16getGlobalContextvE13GlobalContext)
  %7 = call i32 @__cxa_atexit(ptr @_ZN4llvm11LLVMContextD1Ev, ptr @_ZZL16getGlobalContextvE13GlobalContext, ptr @__dso_handle) #10
  call void @__cxa_guard_release(ptr @_ZGVZL16getGlobalContextvE13GlobalContext) #10
  br label %8

8:                                                ; preds = %6, %3, %0
  ret ptr @_ZZL16getGlobalContextvE13GlobalContext
}

; Function Attrs: mustprogress nounwind uwtable
define dso_local ptr @LLVMStructTypeInContext(ptr noundef %0, ptr noundef %1, i32 noundef %2, i32 noundef %3) #0 {
  %5 = alloca ptr, align 8
  %6 = alloca ptr, align 8
  %7 = alloca i32, align 4
  %8 = alloca i32, align 4
  %9 = alloca %"class.llvm::ArrayRef.98", align 8
  %10 = alloca %"class.llvm::ArrayRef.98", align 8
  store ptr %0, ptr %5, align 8
  store ptr %1, ptr %6, align 8
  store i32 %2, ptr %7, align 4
  store i32 %3, ptr %8, align 4
  %11 = load ptr, ptr %6, align 8
  %12 = call noundef ptr @_ZN4llvm6unwrapEPP14LLVMOpaqueType(ptr noundef %11)
  %13 = load i32, ptr %7, align 4
  %14 = zext i32 %13 to i64
  call void @_ZN4llvm8ArrayRefIPNS_4TypeEEC2EPKS2_m(ptr noundef nonnull align 8 dereferenceable(16) %9, ptr noundef %12, i64 noundef %14)
  %15 = load ptr, ptr %5, align 8
  %16 = call noundef ptr @_ZN4llvm6unwrapEP17LLVMOpaqueContext(ptr noundef %15)
  call void @llvm.memcpy.p0.p0.i64(ptr align 8 %10, ptr align 8 %9, i64 16, i1 false)
  %17 = load i32, ptr %8, align 4
  %18 = icmp ne i32 %17, 0
  %19 = getelementptr inbounds nuw { ptr, i64 }, ptr %10, i32 0, i32 0
  %20 = load ptr, ptr %19, align 8
  %21 = getelementptr inbounds nuw { ptr, i64 }, ptr %10, i32 0, i32 1
  %22 = load i64, ptr %21, align 8
  %23 = call noundef ptr @_ZN4llvm10StructType3getERNS_11LLVMContextENS_8ArrayRefIPNS_4TypeEEEb(ptr noundef nonnull align 8 dereferenceable(8) %16, ptr %20, i64 %22, i1 noundef zeroext %18)
  %24 = call noundef ptr @_ZN4llvm4wrapEPKNS_4TypeE(ptr noundef %23)
  ret ptr %24
}

; Function Attrs: mustprogress nounwind uwtable
define dso_local ptr @LLVMGetGlobalContext() #0 {
  %1 = call noundef nonnull align 8 dereferenceable(8) ptr @_ZL16getGlobalContextv()
  %2 = call noundef ptr @_ZN4llvm4wrapEPKNS_11LLVMContextE(ptr noundef %1)
  ret ptr %2
}

; Function Attrs: mustprogress nounwind uwtable
define dso_local ptr @LLVMStructType(ptr noundef %0, i32 noundef %1, i32 noundef %2) #0 {
  %4 = alloca ptr, align 8
  %5 = alloca i32, align 4
  %6 = alloca i32, align 4
  store ptr %0, ptr %4, align 8
  store i32 %1, ptr %5, align 4
  store i32 %2, ptr %6, align 4
  %7 = call ptr @LLVMGetGlobalContext()
  %8 = load ptr, ptr %4, align 8
  %9 = load i32, ptr %5, align 4
  %10 = load i32, ptr %6, align 4
  %11 = call ptr @LLVMStructTypeInContext(ptr noundef %7, ptr noundef %8, i32 noundef %9, i32 noundef %10)
  ret ptr %11
}