; Function Attrs: mustprogress nounwind uwtable
define dso_local noundef ptr @LLVMStructType(ptr noundef %0, i32 noundef %1, i32 noundef %2) local_unnamed_addr #0 {
  %4 = load atomic i8, ptr @_ZGVZL16getGlobalContextvE13GlobalContext acquire, align 8
  %5 = icmp eq i8 %4, 0
  br i1 %5, label %6, label %LLVMGetGlobalContext.exit, !prof !4

6:                                                ; preds = %3
  %7 = tail call i32 @__cxa_guard_acquire(ptr nonnull @_ZGVZL16getGlobalContextvE13GlobalContext) #35
  %.not.i.i = icmp eq i32 %7, 0
  br i1 %.not.i.i, label %LLVMGetGlobalContext.exit, label %8

8:                                                ; preds = %6
  tail call void @_ZN4llvm11LLVMContextC1Ev(ptr noundef nonnull align 8 dereferenceable(8) @_ZZL16getGlobalContextvE13GlobalContext) #35
  %9 = tail call i32 @__cxa_atexit(ptr nonnull @_ZN4llvm11LLVMContextD1Ev, ptr nonnull @_ZZL16getGlobalContextvE13GlobalContext, ptr nonnull @__dso_handle) #35
  tail call void @__cxa_guard_release(ptr nonnull @_ZGVZL16getGlobalContextvE13GlobalContext) #35
  br label %LLVMGetGlobalContext.exit

LLVMGetGlobalContext.exit:                        ; preds = %3, %6, %8
  %10 = zext i32 %1 to i64
  %11 = icmp ne i32 %2, 0
  %12 = tail call noundef ptr @_ZN4llvm10StructType3getERNS_11LLVMContextENS_8ArrayRefIPNS_4TypeEEEb(ptr noundef nonnull align 8 dereferenceable(8) @_ZZL16getGlobalContextvE13GlobalContext, ptr %0, i64 %10, i1 noundef zeroext %11) #35
  ret ptr %12
}